; Function Attrs: mustprogress nounwind uwtable
define dso_local noundef zeroext i1 @_ZN5clang16CompilerInstance23InitializeSourceManagerERKNS_17FrontendInputFileE(ptr noundef nonnull readonly align 8 captures(none) dereferenceable(352) %0, ptr noundef nonnull align 8 dereferenceable(77) %1) local_unnamed_addr #0 align 2 {
  %3 = getelementptr inbounds nuw i8, ptr %0, i64 32
  %4 = load ptr, ptr %3, align 8
  %5 = getelementptr inbounds nuw i8, ptr %0, i64 56
  %6 = load ptr, ptr %5, align 8
  %7 = getelementptr inbounds nuw i8, ptr %0, i64 64
  %8 = load ptr, ptr %7, align 8
  %9 = tail call noundef zeroext i1 @_ZN5clang16CompilerInstance23InitializeSourceManagerERKNS_17FrontendInputFileERNS_17DiagnosticsEngineERNS_11FileManagerERNS_13SourceManagerE(ptr noundef nonnull align 8 dereferenceable(77) %1, ptr noundef nonnull align 8 dereferenceable(1304) %4, ptr noundef nonnull align 8 dereferenceable(808) %6, ptr noundef nonnull align 8 dereferenceable(696) %8)
  ret i1 %9
}